target datalayout = "e-m:e-p270:32:32-p271:32:32-p272:64:64-i64:64-i128:128-f80:128-n8:16:32:64-S128"
target triple = "x86_64-pc-linux-gnu"

@bio_stdout = internal global ptr null, align 8
@alpn_client = internal global ptr null, align 8
@alpn_server = internal global ptr null, align 8
@alpn_server2 = internal global ptr null, align 8
@alpn_expected = internal global ptr null, align 8
@s_ctx2 = internal global ptr null, align 8
@.str.104 = private unnamed_addr constant [31 x i8] c"../openssl/test/ssl_old_test.c\00", align 1
@alpn_selected = internal global ptr null, align 8
@.str.245 = private unnamed_addr constant [51 x i8] c"Inconsistent SSL_get0_alpn_selected() for client!\0A\00", align 1
@.str.246 = private unnamed_addr constant [51 x i8] c"Inconsistent SSL_get0_alpn_selected() for server!\0A\00", align 1
@.str.247 = private unnamed_addr constant [33 x i8] c"ALPN selected protocols differ!\0A\00", align 1
@.str.248 = private unnamed_addr constant [30 x i8] c"ALPN unexpectedly negotiated\0A\00", align 1
@.str.249 = private unnamed_addr constant [60 x i8] c"ALPN selected protocols not equal to expected protocol: %s\0A\00", align 1
@.str.250 = private unnamed_addr constant [24 x i8] c"ALPN results: client: '\00", align 1
@.str.251 = private unnamed_addr constant [13 x i8] c"', server: '\00", align 1
@.str.252 = private unnamed_addr constant [3 x i8] c"'\0A\00", align 1
@.str.253 = private unnamed_addr constant [41 x i8] c"ALPN configured: client: '%s', server: '\00", align 1
@.str.254 = private unnamed_addr constant [5 x i8] c"%s'\0A\00", align 1

; Function Attrs: nounwind uwtable
define internal i32 @verify_alpn(ptr noundef %0, ptr noundef %1) #0 {
  %3 = alloca i32, align 4
  %4 = alloca ptr, align 8
  %5 = alloca ptr, align 8
  %6 = alloca ptr, align 8
  %7 = alloca ptr, align 8
  %8 = alloca i32, align 4
  %9 = alloca i32, align 4
  %10 = alloca i32, align 4
  store ptr %0, ptr %4, align 8, !tbaa !17
  store ptr %1, ptr %5, align 8, !tbaa !17
  call void @llvm.lifetime.start.p0(i64 8, ptr %6) #10
  call void @llvm.lifetime.start.p0(i64 8, ptr %7) #10
  call void @llvm.lifetime.start.p0(i64 4, ptr %8) #10
  store i32 0, ptr %8, align 4, !tbaa !4
  call void @llvm.lifetime.start.p0(i64 4, ptr %9) #10
  store i32 0, ptr %9, align 4, !tbaa !4
  %11 = load ptr, ptr %4, align 8, !tbaa !17
  call void @SSL_get0_alpn_selected(ptr noundef %11, ptr noundef %6, ptr noundef %8)
  %12 = load ptr, ptr %5, align 8, !tbaa !17
  call void @SSL_get0_alpn_selected(ptr noundef %12, ptr noundef %7, ptr noundef %9)
  %13 = load ptr, ptr @alpn_selected, align 8, !tbaa !11
  call void @CRYPTO_free(ptr noundef %13, ptr noundef @.str.104, i32 noundef 333)
  store ptr null, ptr @alpn_selected, align 8, !tbaa !11
  %14 = load ptr, ptr %6, align 8, !tbaa !11
  %15 = icmp eq ptr %14, null
  br i1 %15, label %16, label %22

16:                                               ; preds = %2
  %17 = load i32, ptr %8, align 4, !tbaa !4
  %18 = icmp ne i32 %17, 0
  br i1 %18, label %19, label %22

19:                                               ; preds = %16
  %20 = load ptr, ptr @bio_stdout, align 8, !tbaa !35
  %21 = call i32 (ptr, ptr, ...) @BIO_printf(ptr noundef %20, ptr noundef @.str.245)
  br label %81

22:                                               ; preds = %16, %2
  %23 = load ptr, ptr %7, align 8, !tbaa !11
  %24 = icmp eq ptr %23, null
  br i1 %24, label %25, label %31

25:                                               ; preds = %22
  %26 = load i32, ptr %9, align 4, !tbaa !4
  %27 = icmp ne i32 %26, 0
  br i1 %27, label %28, label %31

28:                                               ; preds = %25
  %29 = load ptr, ptr @bio_stdout, align 8, !tbaa !35
  %30 = call i32 (ptr, ptr, ...) @BIO_printf(ptr noundef %29, ptr noundef @.str.246)
  br label %81

31:                                               ; preds = %25, %22
  %32 = load i32, ptr %8, align 4, !tbaa !4
  %33 = load i32, ptr %9, align 4, !tbaa !4
  %34 = icmp ne i32 %32, %33
  br i1 %34, label %35, label %38

35:                                               ; preds = %31
  %36 = load ptr, ptr @bio_stdout, align 8, !tbaa !35
  %37 = call i32 (ptr, ptr, ...) @BIO_printf(ptr noundef %36, ptr noundef @.str.247)
  br label %81

38:                                               ; preds = %31
  %39 = load ptr, ptr %6, align 8, !tbaa !11
  %40 = icmp ne ptr %39, null
  br i1 %40, label %41, label %51

41:                                               ; preds = %38
  %42 = load ptr, ptr %6, align 8, !tbaa !11
  %43 = load ptr, ptr %7, align 8, !tbaa !11
  %44 = load i32, ptr %8, align 4, !tbaa !4
  %45 = zext i32 %44 to i64
  %46 = call i32 @memcmp(ptr noundef %42, ptr noundef %43, i64 noundef %45) #11
  %47 = icmp ne i32 %46, 0
  br i1 %47, label %48, label %51

48:                                               ; preds = %41
  %49 = load ptr, ptr @bio_stdout, align 8, !tbaa !35
  %50 = call i32 (ptr, ptr, ...) @BIO_printf(ptr noundef %49, ptr noundef @.str.247)
  br label %81

51:                                               ; preds = %41, %38
  %52 = load i32, ptr %8, align 4, !tbaa !4
  %53 = icmp ugt i32 %52, 0
  br i1 %53, label %54, label %60

54:                                               ; preds = %51
  %55 = load ptr, ptr @alpn_expected, align 8, !tbaa !11
  %56 = icmp eq ptr %55, null
  br i1 %56, label %57, label %60

57:                                               ; preds = %54
  %58 = load ptr, ptr @bio_stdout, align 8, !tbaa !35
  %59 = call i32 (ptr, ptr, ...) @BIO_printf(ptr noundef %58, ptr noundef @.str.248)
  br label %81

60:                                               ; preds = %54, %51
  %61 = load ptr, ptr @alpn_expected, align 8, !tbaa !11
  %62 = icmp ne ptr %61, null
  br i1 %62, label %63, label %80

63:                                               ; preds = %60
  %64 = load i32, ptr %8, align 4, !tbaa !4
  %65 = zext i32 %64 to i64
  %66 = load ptr, ptr @alpn_expected, align 8, !tbaa !11
  %67 = call i64 @strlen(ptr noundef %66) #11
  %68 = icmp ne i64 %65, %67
  br i1 %68, label %76, label %69

69:                                               ; preds = %63
  %70 = load ptr, ptr %6, align 8, !tbaa !11
  %71 = load ptr, ptr @alpn_expected, align 8, !tbaa !11
  %72 = load i32, ptr %8, align 4, !tbaa !4
  %73 = zext i32 %72 to i64
  %74 = call i32 @memcmp(ptr noundef %70, ptr noundef %71, i64 noundef %73) #11
  %75 = icmp ne i32 %74, 0
  br i1 %75, label %76, label %80

76:                                               ; preds = %69, %63
  %77 = load ptr, ptr @bio_stdout, align 8, !tbaa !35
  %78 = load ptr, ptr @alpn_expected, align 8, !tbaa !11
  %79 = call i32 (ptr, ptr, ...) @BIO_printf(ptr noundef %77, ptr noundef @.str.249, ptr noundef %78)
  br label %81

80:                                               ; preds = %69, %60
  store i32 0, ptr %3, align 4
  store i32 1, ptr %10, align 4
  br label %112

81:                                               ; preds = %76, %57, %48, %35, %28, %19
  %82 = load ptr, ptr @bio_stdout, align 8, !tbaa !35
  %83 = call i32 (ptr, ptr, ...) @BIO_printf(ptr noundef %82, ptr noundef @.str.250)
  %84 = load ptr, ptr @bio_stdout, align 8, !tbaa !35
  %85 = load ptr, ptr %6, align 8, !tbaa !11
  %86 = load i32, ptr %8, align 4, !tbaa !4
  %87 = call i32 @BIO_write(ptr noundef %84, ptr noundef %85, i32 noundef %86)
  %88 = load ptr, ptr @bio_stdout, align 8, !tbaa !35
  %89 = call i32 (ptr, ptr, ...) @BIO_printf(ptr noundef %88, ptr noundef @.str.251)
  %90 = load ptr, ptr @bio_stdout, align 8, !tbaa !35
  %91 = load ptr, ptr %7, align 8, !tbaa !11
  %92 = load i32, ptr %9, align 4, !tbaa !4
  %93 = call i32 @BIO_write(ptr noundef %90, ptr noundef %91, i32 noundef %92)
  %94 = load ptr, ptr @bio_stdout, align 8, !tbaa !35
  %95 = call i32 (ptr, ptr, ...) @BIO_printf(ptr noundef %94, ptr noundef @.str.252)
  %96 = load ptr, ptr @bio_stdout, align 8, !tbaa !35
  %97 = load ptr, ptr @alpn_client, align 8, !tbaa !11
  %98 = call i32 (ptr, ptr, ...) @BIO_printf(ptr noundef %96, ptr noundef @.str.253, ptr noundef %97)
  %99 = load ptr, ptr %5, align 8, !tbaa !17
  %100 = call ptr @SSL_get_SSL_CTX(ptr noundef %99)
  %101 = load ptr, ptr @s_ctx2, align 8, !tbaa !13
  %102 = icmp eq ptr %100, %101
  br i1 %102, label %103, label %107

103:                                              ; preds = %81
  %104 = load ptr, ptr @bio_stdout, align 8, !tbaa !35
  %105 = load ptr, ptr @alpn_server2, align 8, !tbaa !11
  %106 = call i32 (ptr, ptr, ...) @BIO_printf(ptr noundef %104, ptr noundef @.str.254, ptr noundef %105)
  br label %111

107:                                              ; preds = %81
  %108 = load ptr, ptr @bio_stdout, align 8, !tbaa !35
  %109 = load ptr, ptr @alpn_server, align 8, !tbaa !11
  %110 = call i32 (ptr, ptr, ...) @BIO_printf(ptr noundef %108, ptr noundef @.str.254, ptr noundef %109)
  br label %111

111:                                              ; preds = %107, %103
  store i32 -1, ptr %3, align 4
  store i32 1, ptr %10, align 4
  br label %112

112:                                              ; preds = %111, %80
  call void @llvm.lifetime.end.p0(i64 4, ptr %9) #10
  call void @llvm.lifetime.end.p0(i64 4, ptr %8) #10
  call void @llvm.lifetime.end.p0(i64 8, ptr %7) #10
  call void @llvm.lifetime.end.p0(i64 8, ptr %6) #10
  %113 = load i32, ptr %3, align 4
  ret i32 %113
}