; Function Attrs: nounwind uwtable
define internal fastcc range(i32 -1, 1) i32 @verify_alpn(ptr noundef %0, ptr noundef %1) unnamed_addr #7 {
  %3 = alloca ptr, align 8
  %4 = alloca ptr, align 8
  %5 = alloca i32, align 4
  %6 = alloca i32, align 4
  call void @llvm.lifetime.start.p0(i64 8, ptr nonnull %3) #23
  call void @llvm.lifetime.start.p0(i64 8, ptr nonnull %4) #23
  call void @llvm.lifetime.start.p0(i64 4, ptr nonnull %5) #23
  store i32 0, ptr %5, align 4, !tbaa !4
  call void @llvm.lifetime.start.p0(i64 4, ptr nonnull %6) #23
  store i32 0, ptr %6, align 4, !tbaa !4
  call void @SSL_get0_alpn_selected(ptr noundef %0, ptr noundef nonnull %3, ptr noundef nonnull %5) #23
  call void @SSL_get0_alpn_selected(ptr noundef %1, ptr noundef nonnull %4, ptr noundef nonnull %6) #23
  %7 = load ptr, ptr @alpn_selected, align 8, !tbaa !21
  call void @CRYPTO_free(ptr noundef %7, ptr noundef nonnull @.str.104, i32 noundef 333) #23
  store ptr null, ptr @alpn_selected, align 8, !tbaa !21
  %8 = load ptr, ptr %3, align 8, !tbaa !21
  %9 = icmp eq ptr %8, null
  %10 = load i32, ptr %5, align 4
  %11 = icmp ne i32 %10, 0
  %or.cond = select i1 %9, i1 %11, i1 false
  br i1 %or.cond, label %12, label %15

12:                                               ; preds = %2
  %13 = load ptr, ptr @bio_stdout, align 8, !tbaa !19
  %14 = call i32 (ptr, ptr, ...) @BIO_printf(ptr noundef %13, ptr noundef nonnull @.str.245) #23
  br label %.sink.split

15:                                               ; preds = %2
  %16 = load ptr, ptr %4, align 8, !tbaa !21
  %17 = icmp eq ptr %16, null
  %18 = load i32, ptr %6, align 4
  %19 = icmp ne i32 %18, 0
  %or.cond3 = select i1 %17, i1 %19, i1 false
  br i1 %or.cond3, label %20, label %23

20:                                               ; preds = %15
  %21 = load ptr, ptr @bio_stdout, align 8, !tbaa !19
  %22 = call i32 (ptr, ptr, ...) @BIO_printf(ptr noundef %21, ptr noundef nonnull @.str.246) #23
  br label %.sink.split

23:                                               ; preds = %15
  %.not = icmp eq i32 %10, %18
  br i1 %.not, label %27, label %24

24:                                               ; preds = %23
  %25 = load ptr, ptr @bio_stdout, align 8, !tbaa !19
  %26 = call i32 (ptr, ptr, ...) @BIO_printf(ptr noundef %25, ptr noundef nonnull @.str.247) #23
  br label %.sink.split

27:                                               ; preds = %23
  br i1 %9, label %33, label %28

28:                                               ; preds = %27
  %29 = zext i32 %10 to i64
  %bcmp = call i32 @bcmp(ptr nonnull %8, ptr %16, i64 %29)
  %.not13 = icmp eq i32 %bcmp, 0
  br i1 %.not13, label %33, label %30

30:                                               ; preds = %28
  %31 = load ptr, ptr @bio_stdout, align 8, !tbaa !19
  %32 = call i32 (ptr, ptr, ...) @BIO_printf(ptr noundef %31, ptr noundef nonnull @.str.247) #23
  br label %.sink.split

33:                                               ; preds = %28, %27
  %34 = load ptr, ptr @alpn_expected, align 8
  %35 = icmp eq ptr %34, null
  %or.cond5 = select i1 %11, i1 %35, i1 false
  br i1 %or.cond5, label %36, label %39

36:                                               ; preds = %33
  %37 = load ptr, ptr @bio_stdout, align 8, !tbaa !19
  %38 = call i32 (ptr, ptr, ...) @BIO_printf(ptr noundef %37, ptr noundef nonnull @.str.248) #23
  br label %.sink.split

39:                                               ; preds = %33
  br i1 %35, label %70, label %40

40:                                               ; preds = %39
  %41 = zext i32 %10 to i64
  %42 = call i64 @strlen(ptr noundef nonnull dereferenceable(1) %34) #25
  %.not15 = icmp eq i64 %42, %41
  br i1 %.not15, label %43, label %44

43:                                               ; preds = %40
  %bcmp16 = call i32 @bcmp(ptr %8, ptr nonnull %34, i64 %41)
  %.not17 = icmp eq i32 %bcmp16, 0
  br i1 %.not17, label %70, label %44

44:                                               ; preds = %43, %40
  %45 = load ptr, ptr @bio_stdout, align 8, !tbaa !19
  %46 = call i32 (ptr, ptr, ...) @BIO_printf(ptr noundef %45, ptr noundef nonnull @.str.249, ptr noundef nonnull %34) #23
  br label %.sink.split

.sink.split:                                      ; preds = %44, %36, %30, %24, %20, %12
  %47 = load ptr, ptr @bio_stdout, align 8, !tbaa !19
  %48 = call i32 (ptr, ptr, ...) @BIO_printf(ptr noundef %47, ptr noundef nonnull @.str.250) #23
  %49 = load ptr, ptr @bio_stdout, align 8, !tbaa !19
  %50 = load ptr, ptr %3, align 8, !tbaa !21
  %51 = load i32, ptr %5, align 4, !tbaa !4
  %52 = call i32 @BIO_write(ptr noundef %49, ptr noundef %50, i32 noundef %51) #23
  %53 = load ptr, ptr @bio_stdout, align 8, !tbaa !19
  %54 = call i32 (ptr, ptr, ...) @BIO_printf(ptr noundef %53, ptr noundef nonnull @.str.251) #23
  %55 = load ptr, ptr @bio_stdout, align 8, !tbaa !19
  %56 = load ptr, ptr %4, align 8, !tbaa !21
  %57 = load i32, ptr %6, align 4, !tbaa !4
  %58 = call i32 @BIO_write(ptr noundef %55, ptr noundef %56, i32 noundef %57) #23
  %59 = load ptr, ptr @bio_stdout, align 8, !tbaa !19
  %60 = call i32 (ptr, ptr, ...) @BIO_printf(ptr noundef %59, ptr noundef nonnull @.str.252) #23
  %61 = load ptr, ptr @bio_stdout, align 8, !tbaa !19
  %62 = load ptr, ptr @alpn_client, align 8, !tbaa !21
  %63 = call i32 (ptr, ptr, ...) @BIO_printf(ptr noundef %61, ptr noundef nonnull @.str.253, ptr noundef %62) #23
  %64 = call ptr @SSL_get_SSL_CTX(ptr noundef %1) #23
  %65 = load ptr, ptr @s_ctx2, align 8, !tbaa !29
  %66 = icmp eq ptr %64, %65
  %67 = load ptr, ptr @bio_stdout, align 8, !tbaa !19
  %alpn_server2.val = load ptr, ptr @alpn_server2, align 8
  %alpn_server.val = load ptr, ptr @alpn_server, align 8
  %68 = select i1 %66, ptr %alpn_server2.val, ptr %alpn_server.val
  %69 = call i32 (ptr, ptr, ...) @BIO_printf(ptr noundef %67, ptr noundef nonnull @.str.254, ptr noundef %68) #23
  br label %70

70:                                               ; preds = %.sink.split, %39, %43
  %.0 = phi i32 [ 0, %43 ], [ 0, %39 ], [ -1, %.sink.split ]
  call void @llvm.lifetime.end.p0(i64 4, ptr nonnull %6) #23
  call void @llvm.lifetime.end.p0(i64 4, ptr nonnull %5) #23
  call void @llvm.lifetime.end.p0(i64 8, ptr nonnull %4) #23
  call void @llvm.lifetime.end.p0(i64 8, ptr nonnull %3) #23
  ret i32 %.0
}